; Function Attrs: mustprogress uwtable
define hidden void @_ZNK4cvc58internal8rewriter16RewriteProofRule16getConclusionForERKSt6vectorINS0_12NodeTemplateILb1EEESaIS5_EE(ptr dead_on_unwind noalias writable sret(%"class.cvc5::internal::NodeTemplate") align 8 %0, ptr noundef nonnull align 8 dereferenceable(344) %1, ptr noundef nonnull align 8 dereferenceable(24) %2) local_unnamed_addr #3 align 2 personality ptr @__gxx_personality_v0 {
  %4 = alloca %"class.cvc5::internal::NodeTemplate", align 8
  %5 = alloca %"class.cvc5::internal::NodeTemplate", align 8
  call void @llvm.lifetime.start.p0(i64 8, ptr nonnull %4) #24
  call void @_ZNK4cvc58internal8rewriter16RewriteProofRule13getConclusionEb(ptr dead_on_unwind nonnull writable sret(%"class.cvc5::internal::NodeTemplate") align 8 %4, ptr noundef nonnull align 8 dereferenceable(344) %1, i1 noundef zeroext true)
  %6 = load ptr, ptr %4, align 8, !tbaa !40
  store ptr %6, ptr %5, align 8, !tbaa !40
  %7 = load i64, ptr %6, align 8
  %8 = lshr i64 %7, 40
  %9 = trunc nuw nsw i64 %8 to i32
  %10 = and i32 %9, 1048575
  %11 = icmp samesign ult i32 %10, 1048574
  br i1 %11, label %12, label %17, !prof !56

12:                                               ; preds = %3
  %13 = add i64 %7, 1099511627776
  %14 = and i64 %13, 1152920405095219200
  %15 = and i64 %7, -1152920405095219201
  %16 = or disjoint i64 %14, %15
  store i64 %16, ptr %6, align 8
  br label %_ZN4cvc58internal12NodeTemplateILb1EEC2ERKS2_.exit

17:                                               ; preds = %3
  %18 = icmp eq i32 %10, 1048574
  br i1 %18, label %19, label %_ZN4cvc58internal12NodeTemplateILb1EEC2ERKS2_.exit, !prof !51

19:                                               ; preds = %17
  %20 = or i64 %7, 1152920405095219200
  store i64 %20, ptr %6, align 8
  invoke void @_ZN4cvc58internal4expr9NodeValue20markRefCountMaxedOutEv(ptr noundef nonnull align 8 dereferenceable(24) %6)
          to label %_ZN4cvc58internal12NodeTemplateILb1EEC2ERKS2_.exit unwind label %49

_ZN4cvc58internal12NodeTemplateILb1EEC2ERKS2_.exit: ; preds = %17, %12, %19
  %21 = getelementptr inbounds nuw i8, ptr %1, i64 80
  invoke void @_ZN4cvc58internal4expr14narySubstituteENS0_12NodeTemplateILb1EEERKSt6vectorIS3_SaIS3_EES8_(ptr dead_on_unwind writable sret(%"class.cvc5::internal::NodeTemplate") align 8 %0, ptr noundef nonnull %5, ptr noundef nonnull align 8 dereferenceable(24) %21, ptr noundef nonnull align 8 dereferenceable(24) %2)
          to label %22 unwind label %51

22:                                               ; preds = %_ZN4cvc58internal12NodeTemplateILb1EEC2ERKS2_.exit
  %23 = load ptr, ptr %5, align 8, !tbaa !40
  %24 = load i64, ptr %23, align 8
  %25 = and i64 %24, 1152920405095219200
  %.not.i.i = icmp eq i64 %25, 1152920405095219200
  br i1 %.not.i.i, label %_ZN4cvc58internal12NodeTemplateILb1EED2Ev.exit, label %26, !prof !51

26:                                               ; preds = %22
  %27 = add i64 %24, 1152920405095219200
  %28 = and i64 %27, 1152920405095219200
  %29 = and i64 %24, -1152920405095219201
  %30 = or disjoint i64 %28, %29
  store i64 %30, ptr %23, align 8
  %31 = icmp eq i64 %28, 0
  br i1 %31, label %32, label %_ZN4cvc58internal12NodeTemplateILb1EED2Ev.exit, !prof !51

32:                                               ; preds = %26
  invoke void @_ZN4cvc58internal4expr9NodeValue15markForDeletionEv(ptr noundef nonnull align 8 dereferenceable(24) %23)
          to label %_ZN4cvc58internal12NodeTemplateILb1EED2Ev.exit unwind label %33

33:                                               ; preds = %32
  %34 = landingpad { ptr, i32 }
          catch ptr null
  %35 = extractvalue { ptr, i32 } %34, 0
  call void @__clang_call_terminate(ptr %35) #26
  unreachable

_ZN4cvc58internal12NodeTemplateILb1EED2Ev.exit:   ; preds = %22, %26, %32
  %36 = load ptr, ptr %4, align 8, !tbaa !40
  %37 = load i64, ptr %36, align 8
  %38 = and i64 %37, 1152920405095219200
  %.not.i.i5 = icmp eq i64 %38, 1152920405095219200
  br i1 %.not.i.i5, label %_ZN4cvc58internal12NodeTemplateILb1EED2Ev.exit6, label %39, !prof !51

39:                                               ; preds = %_ZN4cvc58internal12NodeTemplateILb1EED2Ev.exit
  %40 = add i64 %37, 1152920405095219200
  %41 = and i64 %40, 1152920405095219200
  %42 = and i64 %37, -1152920405095219201
  %43 = or disjoint i64 %41, %42
  store i64 %43, ptr %36, align 8
  %44 = icmp eq i64 %41, 0
  br i1 %44, label %45, label %_ZN4cvc58internal12NodeTemplateILb1EED2Ev.exit6, !prof !51

45:                                               ; preds = %39
  invoke void @_ZN4cvc58internal4expr9NodeValue15markForDeletionEv(ptr noundef nonnull align 8 dereferenceable(24) %36)
          to label %_ZN4cvc58internal12NodeTemplateILb1EED2Ev.exit6 unwind label %46

46:                                               ; preds = %45
  %47 = landingpad { ptr, i32 }
          catch ptr null
  %48 = extractvalue { ptr, i32 } %47, 0
  call void @__clang_call_terminate(ptr %48) #26
  unreachable

_ZN4cvc58internal12NodeTemplateILb1EED2Ev.exit6:  ; preds = %_ZN4cvc58internal12NodeTemplateILb1EED2Ev.exit, %39, %45
  call void @llvm.lifetime.end.p0(i64 8, ptr nonnull %4) #24
  ret void

49:                                               ; preds = %19
  %50 = landingpad { ptr, i32 }
          cleanup
  br label %53

51:                                               ; preds = %_ZN4cvc58internal12NodeTemplateILb1EEC2ERKS2_.exit
  %52 = landingpad { ptr, i32 }
          cleanup
  call void @_ZN4cvc58internal12NodeTemplateILb1EED2Ev(ptr noundef nonnull align 8 dereferenceable(8) %5) #24
  br label %53

53:                                               ; preds = %51, %49
  %.pn = phi { ptr, i32 } [ %52, %51 ], [ %50, %49 ]
  call void @_ZN4cvc58internal12NodeTemplateILb1EED2Ev(ptr noundef nonnull align 8 dereferenceable(8) %4) #24
  call void @llvm.lifetime.end.p0(i64 8, ptr nonnull %4) #24
  resume { ptr, i32 } %.pn
}